; Function Attrs: mustprogress uwtable
define void @_ZN13sentencepiece25MultiFileSentenceIterator7TryReadEv(ptr noundef nonnull align 8 dereferenceable(88) %0) local_unnamed_addr #3 align 2 {
  %2 = getelementptr inbounds i8, ptr %0, i64 80
  %3 = load ptr, ptr %2, align 8
  %.not = icmp eq ptr %3, null
  br i1 %.not, label %11, label %4

4:                                                ; preds = %1
  %5 = getelementptr inbounds i8, ptr %0, i64 48
  %6 = load ptr, ptr %3, align 8
  %7 = getelementptr inbounds i8, ptr %6, i64 24
  %8 = load ptr, ptr %7, align 8
  %9 = tail call noundef zeroext i1 %8(ptr noundef nonnull align 8 dereferenceable(8) %3, ptr noundef nonnull %5)
  %10 = zext i1 %9 to i8
  br label %11

11:                                               ; preds = %4, %1
  %12 = phi i8 [ 0, %1 ], [ %10, %4 ]
  %13 = getelementptr inbounds i8, ptr %0, i64 8
  store i8 %12, ptr %13, align 8
  ret void
}